target datalayout = "e-m:e-p270:32:32-p271:32:32-p272:64:64-i64:64-i128:128-f80:128-n8:16:32:64-S128"
target triple = "x86_64-pc-linux-gnu"

; Function Attrs: mustprogress nounwind uwtable
define internal noundef zeroext i1 @"_ZZN4llvm13MemCpyOptPass21performStackMoveOptznEPNS_11InstructionES2_PNS_10AllocaInstES4_NS_8TypeSizeERNS_14BatchAAResultsEENK3$_3clEPNS_5ValueERKNS_10DataLayoutE"(ptr noundef nonnull align 1 dereferenceable(1) %0, ptr noundef %1, ptr noundef nonnull align 8 dereferenceable(512) %2) #1 align 2 {
  %4 = alloca ptr, align 8
  %5 = alloca ptr, align 8
  %6 = alloca ptr, align 8
  %7 = alloca i8, align 1
  %8 = alloca i8, align 1
  store ptr %0, ptr %4, align 8
  store ptr %1, ptr %5, align 8
  store ptr %2, ptr %6, align 8
  %9 = load ptr, ptr %5, align 8
  %10 = load ptr, ptr %6, align 8
  %11 = call noundef i64 @_ZNK4llvm5Value30getPointerDereferenceableBytesERKNS_10DataLayoutERbS4_(ptr noundef nonnull align 8 dereferenceable(24) %9, ptr noundef nonnull align 8 dereferenceable(512) %10, ptr noundef nonnull align 1 dereferenceable(1) %7, ptr noundef nonnull align 1 dereferenceable(1) %8)
  %12 = icmp ne i64 %11, 0
  ret i1 %12
}

; Function Attrs: mustprogress nounwind uwtable
define internal noundef zeroext i1 @"_ZN4llvm12function_refIFbPNS_5ValueERKNS_10DataLayoutEEE11callback_fnIZNS_13MemCpyOptPass21performStackMoveOptznEPNS_11InstructionESB_PNS_10AllocaInstESD_NS_8TypeSizeERNS_14BatchAAResultsEE3$_3EEblS2_S5_"(i64 noundef %0, ptr noundef %1, ptr noundef nonnull align 8 dereferenceable(512) %2) #1 align 2 {
  %4 = alloca i64, align 8
  %5 = alloca ptr, align 8
  %6 = alloca ptr, align 8
  store i64 %0, ptr %4, align 8
  store ptr %1, ptr %5, align 8
  store ptr %2, ptr %6, align 8
  %7 = load i64, ptr %4, align 8
  %8 = inttoptr i64 %7 to ptr
  %9 = load ptr, ptr %5, align 8
  %10 = load ptr, ptr %6, align 8
  %11 = call noundef zeroext i1 @"_ZZN4llvm13MemCpyOptPass21performStackMoveOptznEPNS_11InstructionES2_PNS_10AllocaInstES4_NS_8TypeSizeERNS_14BatchAAResultsEENK3$_3clEPNS_5ValueERKNS_10DataLayoutE"(ptr noundef nonnull align 1 dereferenceable(1) %8, ptr noundef %9, ptr noundef nonnull align 8 dereferenceable(512) %10)
  ret i1 %11
}