; Function Attrs: mustprogress nounwind uwtable
define internal noundef zeroext i1 @"_ZN4llvm12function_refIFbPNS_5ValueERKNS_10DataLayoutEEE11callback_fnIZNS_13MemCpyOptPass21performStackMoveOptznEPNS_11InstructionESB_PNS_10AllocaInstESD_NS_8TypeSizeERNS_14BatchAAResultsEE3$_3EEblS2_S5_"(i64 %0, ptr noundef nonnull %1, ptr noundef nonnull align 8 dereferenceable(512) %2) #0 align 2 {
  %4 = alloca i8, align 1
  %5 = alloca i8, align 1
  call void @llvm.lifetime.start.p0(i64 1, ptr nonnull %4)
  call void @llvm.lifetime.start.p0(i64 1, ptr nonnull %5)
  %6 = call noundef i64 @_ZNK4llvm5Value30getPointerDereferenceableBytesERKNS_10DataLayoutERbS4_(ptr noundef nonnull align 8 dereferenceable(24) %1, ptr noundef nonnull align 8 dereferenceable(512) %2, ptr noundef nonnull align 1 dereferenceable(1) %4, ptr noundef nonnull align 1 dereferenceable(1) %5) #18
  %7 = icmp ne i64 %6, 0
  call void @llvm.lifetime.end.p0(i64 1, ptr nonnull %4)
  call void @llvm.lifetime.end.p0(i64 1, ptr nonnull %5)
  ret i1 %7
}